target datalayout = "e-m:e-p270:32:32-p271:32:32-p272:64:64-i64:64-i128:128-f80:128-n8:16:32:64-S128"
target triple = "x86_64-unknown-linux-gnu"

%class.symbol = type { ptr }
%class.param_descrs = type { ptr }
%struct.symbol_hash_proc = type { i8 }
%struct.symbol_eq_proc = type { i8 }
%"struct.param_descrs::imp" = type { %class.map, %class.svector }
%class.map = type { %class.table2map }
%class.table2map = type { %class.core_hashtable }
%class.core_hashtable = type <{ ptr, i32, i32, i32, [4 x i8] }>
%class.svector = type { %class.vector }
%class.vector = type { ptr }
%struct._key_data = type { %class.symbol, %"struct.param_descrs::imp::info" }
%"struct.param_descrs::imp::info" = type { i32, ptr, ptr, ptr }
%"struct.table2map<default_map_entry<symbol, param_descrs::imp::info>, symbol_hash_proc, symbol_eq_proc>::entry_hash_proc" = type { i8 }
%"struct.table2map<default_map_entry<symbol, param_descrs::imp::info>, symbol_hash_proc, symbol_eq_proc>::entry_eq_proc" = type { i8 }
%class.default_map_entry = type { %class.default_hash_entry }
%class.default_hash_entry = type { i32, i32, %struct._key_data }

; Function Attrs: mustprogress nounwind uwtable
define linkonce_odr hidden void @_ZN12param_descrs3imp4infoC2Ev(ptr noundef nonnull align 8 dereferenceable(32) %this) unnamed_addr #4 comdat align 2 {
entry:
  %this.addr = alloca ptr, align 8
  store ptr %this, ptr %this.addr, align 8
  %this1 = load ptr, ptr %this.addr, align 8
  %m_kind = getelementptr inbounds %"struct.param_descrs::imp::info", ptr %this1, i32 0, i32 0
  store i32 19, ptr %m_kind, align 8
  %m_descr = getelementptr inbounds %"struct.param_descrs::imp::info", ptr %this1, i32 0, i32 1
  store ptr null, ptr %m_descr, align 8
  %m_default = getelementptr inbounds %"struct.param_descrs::imp::info", ptr %this1, i32 0, i32 2
  store ptr null, ptr %m_default, align 8
  %m_module = getelementptr inbounds %"struct.param_descrs::imp::info", ptr %this1, i32 0, i32 3
  store ptr null, ptr %m_module, align 8
  ret void
}

; Function Attrs: mustprogress nounwind uwtable
define linkonce_odr hidden void @_ZN6symbolC2Ev(ptr noundef nonnull align 8 dereferenceable(8) %this) unnamed_addr #4 comdat align 2 {
entry:
  %this.addr = alloca ptr, align 8
  store ptr %this, ptr %this.addr, align 8
  %this1 = load ptr, ptr %this.addr, align 8
  %m_data = getelementptr inbounds %class.symbol, ptr %this1, i32 0, i32 0
  store ptr null, ptr %m_data, align 8
  ret void
}

; Function Attrs: mustprogress uwtable
define linkonce_odr hidden void @_ZN9_key_dataI6symbolN12param_descrs3imp4infoEEC2Ev(ptr noundef nonnull align 8 dereferenceable(40) %this) unnamed_addr #5 comdat align 2 {
entry:
  %this.addr = alloca ptr, align 8
  store ptr %this, ptr %this.addr, align 8
  %this1 = load ptr, ptr %this.addr, align 8
  %m_key = getelementptr inbounds %struct._key_data, ptr %this1, i32 0, i32 0
  call void @_ZN6symbolC2Ev(ptr noundef nonnull align 8 dereferenceable(8) %m_key)
  %m_value = getelementptr inbounds %struct._key_data, ptr %this1, i32 0, i32 1
  call void @_ZN12param_descrs3imp4infoC2Ev(ptr noundef nonnull align 8 dereferenceable(32) %m_value)
  ret void
}

; Function Attrs: mustprogress uwtable
define linkonce_odr hidden void @_ZN18default_hash_entryI9_key_dataI6symbolN12param_descrs3imp4infoEEEC2Ev(ptr noundef nonnull align 8 dereferenceable(48) %this) unnamed_addr #5 comdat align 2 {
entry:
  %this.addr = alloca ptr, align 8
  store ptr %this, ptr %this.addr, align 8
  %this1 = load ptr, ptr %this.addr, align 8
  %m_hash = getelementptr inbounds %class.default_hash_entry, ptr %this1, i32 0, i32 0
  store i32 0, ptr %m_hash, align 8
  %m_state = getelementptr inbounds %class.default_hash_entry, ptr %this1, i32 0, i32 1
  store i32 0, ptr %m_state, align 4
  %m_data = getelementptr inbounds %class.default_hash_entry, ptr %this1, i32 0, i32 2
  call void @_ZN9_key_dataI6symbolN12param_descrs3imp4infoEEC2Ev(ptr noundef nonnull align 8 dereferenceable(40) %m_data)
  ret void
}

; Function Attrs: mustprogress uwtable
define linkonce_odr hidden void @_ZN17default_map_entryI6symbolN12param_descrs3imp4infoEEC2Ev(ptr noundef nonnull align 8 dereferenceable(48) %this) unnamed_addr #5 comdat align 2 {
entry:
  %this.addr = alloca ptr, align 8
  store ptr %this, ptr %this.addr, align 8
  %this1 = load ptr, ptr %this.addr, align 8
  call void @_ZN18default_hash_entryI9_key_dataI6symbolN12param_descrs3imp4infoEEEC2Ev(ptr noundef nonnull align 8 dereferenceable(48) %this1)
  ret void
}

; Function Attrs: mustprogress uwtable
define linkonce_odr hidden void @_Z12dealloc_vectI17default_map_entryI6symbolN12param_descrs3imp4infoEEEvPT_j(ptr noundef %ptr, i32 noundef %sz) #5 comdat {
entry:
  %ptr.addr = alloca ptr, align 8
  %sz.addr = alloca i32, align 4
  %curr = alloca ptr, align 8
  %i = alloca i32, align 4
  store ptr %ptr, ptr %ptr.addr, align 8
  store i32 %sz, ptr %sz.addr, align 4
  %0 = load ptr, ptr %ptr.addr, align 8
  %cmp = icmp eq ptr %0, null
  br i1 %cmp, label %if.then, label %if.end

if.then:                                          ; preds = %entry
  br label %return

if.end:                                           ; preds = %entry
  %1 = load ptr, ptr %ptr.addr, align 8
  store ptr %1, ptr %curr, align 8
  store i32 0, ptr %i, align 4
  br label %for.cond

for.cond:                                         ; preds = %for.inc, %if.end
  %2 = load i32, ptr %i, align 4
  %3 = load i32, ptr %sz.addr, align 4
  %cmp1 = icmp ult i32 %2, %3
  br i1 %cmp1, label %for.body, label %for.end

for.body:                                         ; preds = %for.cond
  br label %for.inc

for.inc:                                          ; preds = %for.body
  %4 = load i32, ptr %i, align 4
  %inc = add i32 %4, 1
  store i32 %inc, ptr %i, align 4
  %5 = load ptr, ptr %curr, align 8
  %incdec.ptr = getelementptr inbounds %class.default_map_entry, ptr %5, i32 1
  store ptr %incdec.ptr, ptr %curr, align 8
  br label %for.cond, !llvm.loop !45

for.end:                                          ; preds = %for.cond
  %6 = load ptr, ptr %ptr.addr, align 8
  call void @_ZN6memory10deallocateEPv(ptr noundef %6)
  br label %return

return:                                           ; preds = %for.end, %if.then
  ret void
}

; Function Attrs: mustprogress uwtable
define linkonce_odr hidden noalias noundef ptr @_Z10alloc_vectI17default_map_entryI6symbolN12param_descrs3imp4infoEEEPT_j(i32 noundef %sz) #5 comdat {
entry:
  %sz.addr = alloca i32, align 4
  %r = alloca ptr, align 8
  %curr = alloca ptr, align 8
  %i = alloca i32, align 4
  store i32 %sz, ptr %sz.addr, align 4
  %0 = load i32, ptr %sz.addr, align 4
  %conv = zext i32 %0 to i64
  %mul = mul i64 48, %conv
  %call = call noalias noundef ptr @_ZN6memory8allocateEm(i64 noundef %mul)
  store ptr %call, ptr %r, align 8
  %1 = load ptr, ptr %r, align 8
  store ptr %1, ptr %curr, align 8
  store i32 0, ptr %i, align 4
  br label %for.cond

for.cond:                                         ; preds = %for.inc, %entry
  %2 = load i32, ptr %i, align 4
  %3 = load i32, ptr %sz.addr, align 4
  %cmp = icmp ult i32 %2, %3
  br i1 %cmp, label %for.body, label %for.end

for.body:                                         ; preds = %for.cond
  %4 = load ptr, ptr %curr, align 8
  call void @llvm.memset.p0.i64(ptr align 8 %4, i8 0, i64 48, i1 false)
  call void @_ZN17default_map_entryI6symbolN12param_descrs3imp4infoEEC2Ev(ptr noundef nonnull align 8 dereferenceable(48) %4)
  br label %for.inc

for.inc:                                          ; preds = %for.body
  %5 = load i32, ptr %i, align 4
  %inc = add i32 %5, 1
  store i32 %inc, ptr %i, align 4
  %6 = load ptr, ptr %curr, align 8
  %incdec.ptr = getelementptr inbounds %class.default_map_entry, ptr %6, i32 1
  store ptr %incdec.ptr, ptr %curr, align 8
  br label %for.cond, !llvm.loop !44

for.end:                                          ; preds = %for.cond
  %7 = load ptr, ptr %r, align 8
  ret ptr %7
}

; Function Attrs: noreturn nounwind uwtable
define linkonce_odr hidden void @__clang_call_terminate(ptr noundef %0) #7 comdat {
  %2 = call ptr @__cxa_begin_catch(ptr %0) #3
  call void @_ZSt9terminatev() #16
  unreachable
}

; Function Attrs: mustprogress uwtable
define linkonce_odr hidden void @_ZN14core_hashtableI17default_map_entryI6symbolN12param_descrs3imp4infoEEN9table2mapIS5_16symbol_hash_proc14symbol_eq_procE15entry_hash_procENS9_13entry_eq_procEE12delete_tableEv(ptr noundef nonnull align 8 dereferenceable(20) %this) #5 comdat align 2 {
entry:
  %this.addr = alloca ptr, align 8
  store ptr %this, ptr %this.addr, align 8
  %this1 = load ptr, ptr %this.addr, align 8
  %m_table = getelementptr inbounds %class.core_hashtable, ptr %this1, i32 0, i32 0
  %0 = load ptr, ptr %m_table, align 8
  %m_capacity = getelementptr inbounds %class.core_hashtable, ptr %this1, i32 0, i32 1
  %1 = load i32, ptr %m_capacity, align 8
  call void @_Z12dealloc_vectI17default_map_entryI6symbolN12param_descrs3imp4infoEEEvPT_j(ptr noundef %0, i32 noundef %1)
  %m_table2 = getelementptr inbounds %class.core_hashtable, ptr %this1, i32 0, i32 0
  store ptr null, ptr %m_table2, align 8
  ret void
}

; Function Attrs: mustprogress uwtable
define linkonce_odr hidden noundef ptr @_ZN14core_hashtableI17default_map_entryI6symbolN12param_descrs3imp4infoEEN9table2mapIS5_16symbol_hash_proc14symbol_eq_procE15entry_hash_procENS9_13entry_eq_procEE11alloc_tableEj(ptr noundef nonnull align 8 dereferenceable(20) %this, i32 noundef %size) #5 comdat align 2 {
entry:
  %this.addr = alloca ptr, align 8
  %size.addr = alloca i32, align 4
  %entries = alloca ptr, align 8
  store ptr %this, ptr %this.addr, align 8
  store i32 %size, ptr %size.addr, align 4
  %0 = load i32, ptr %size.addr, align 4
  %call = call noalias noundef ptr @_Z10alloc_vectI17default_map_entryI6symbolN12param_descrs3imp4infoEEEPT_j(i32 noundef %0)
  store ptr %call, ptr %entries, align 8
  %1 = load ptr, ptr %entries, align 8
  ret ptr %1
}

; Function Attrs: mustprogress nounwind uwtable
define linkonce_odr hidden void @_ZN14core_hashtableI17default_map_entryI6symbolN12param_descrs3imp4infoEEN9table2mapIS5_16symbol_hash_proc14symbol_eq_procE15entry_hash_procENS9_13entry_eq_procEED2Ev(ptr noundef nonnull align 8 dereferenceable(20) %this) unnamed_addr #4 comdat align 2 personality ptr @__gxx_personality_v0 {
entry:
  %this.addr = alloca ptr, align 8
  store ptr %this, ptr %this.addr, align 8
  %this1 = load ptr, ptr %this.addr, align 8
  invoke void @_ZN14core_hashtableI17default_map_entryI6symbolN12param_descrs3imp4infoEEN9table2mapIS5_16symbol_hash_proc14symbol_eq_procE15entry_hash_procENS9_13entry_eq_procEE12delete_tableEv(ptr noundef nonnull align 8 dereferenceable(20) %this1)
          to label %invoke.cont unwind label %terminate.lpad

invoke.cont:                                      ; preds = %entry
  ret void

terminate.lpad:                                   ; preds = %entry
  %0 = landingpad { ptr, i32 }
          catch ptr null
  %1 = extractvalue { ptr, i32 } %0, 0
  call void @__clang_call_terminate(ptr %1) #16
  unreachable
}

; Function Attrs: mustprogress uwtable
define linkonce_odr hidden void @_ZN14core_hashtableI17default_map_entryI6symbolN12param_descrs3imp4infoEEN9table2mapIS5_16symbol_hash_proc14symbol_eq_procE15entry_hash_procENS9_13entry_eq_procEEC2EjRKSA_RKSB_(ptr noundef nonnull align 8 dereferenceable(20) %this, i32 noundef %initial_capacity, ptr noundef nonnull align 1 dereferenceable(1) %h, ptr noundef nonnull align 1 dereferenceable(1) %e) unnamed_addr #5 comdat align 2 {
entry:
  %this.addr = alloca ptr, align 8
  %initial_capacity.addr = alloca i32, align 4
  %h.addr = alloca ptr, align 8
  %e.addr = alloca ptr, align 8
  store ptr %this, ptr %this.addr, align 8
  store i32 %initial_capacity, ptr %initial_capacity.addr, align 4
  store ptr %h, ptr %h.addr, align 8
  store ptr %e, ptr %e.addr, align 8
  %this1 = load ptr, ptr %this.addr, align 8
  %0 = load i32, ptr %initial_capacity.addr, align 4
  %call = call noundef ptr @_ZN14core_hashtableI17default_map_entryI6symbolN12param_descrs3imp4infoEEN9table2mapIS5_16symbol_hash_proc14symbol_eq_procE15entry_hash_procENS9_13entry_eq_procEE11alloc_tableEj(ptr noundef nonnull align 8 dereferenceable(20) %this1, i32 noundef %0)
  %m_table = getelementptr inbounds %class.core_hashtable, ptr %this1, i32 0, i32 0
  store ptr %call, ptr %m_table, align 8
  %1 = load i32, ptr %initial_capacity.addr, align 4
  %m_capacity = getelementptr inbounds %class.core_hashtable, ptr %this1, i32 0, i32 1
  store i32 %1, ptr %m_capacity, align 8
  %m_size = getelementptr inbounds %class.core_hashtable, ptr %this1, i32 0, i32 2
  store i32 0, ptr %m_size, align 4
  %m_num_deleted = getelementptr inbounds %class.core_hashtable, ptr %this1, i32 0, i32 3
  store i32 0, ptr %m_num_deleted, align 8
  ret void
}

; Function Attrs: mustprogress nounwind uwtable
define linkonce_odr hidden void @_ZN9table2mapI17default_map_entryI6symbolN12param_descrs3imp4infoEE16symbol_hash_proc14symbol_eq_procE13entry_eq_procC2ERKS7_(ptr noundef nonnull align 1 dereferenceable(1) %this, ptr noundef nonnull align 1 dereferenceable(1) %p) unnamed_addr #4 comdat align 2 {
entry:
  %this.addr = alloca ptr, align 8
  %p.addr = alloca ptr, align 8
  store ptr %this, ptr %this.addr, align 8
  store ptr %p, ptr %p.addr, align 8
  ret void
}

; Function Attrs: mustprogress nounwind uwtable
define linkonce_odr hidden void @_ZN9table2mapI17default_map_entryI6symbolN12param_descrs3imp4infoEE16symbol_hash_proc14symbol_eq_procE15entry_hash_procC2ERKS6_(ptr noundef nonnull align 1 dereferenceable(1) %this, ptr noundef nonnull align 1 dereferenceable(1) %p) unnamed_addr #4 comdat align 2 {
entry:
  %this.addr = alloca ptr, align 8
  %p.addr = alloca ptr, align 8
  store ptr %this, ptr %this.addr, align 8
  store ptr %p, ptr %p.addr, align 8
  ret void
}

; Function Attrs: mustprogress nounwind uwtable
define linkonce_odr hidden void @_ZN9table2mapI17default_map_entryI6symbolN12param_descrs3imp4infoEE16symbol_hash_proc14symbol_eq_procED2Ev(ptr noundef nonnull align 8 dereferenceable(24) %this) unnamed_addr #4 comdat align 2 {
entry:
  %this.addr = alloca ptr, align 8
  store ptr %this, ptr %this.addr, align 8
  %this1 = load ptr, ptr %this.addr, align 8
  %m_table = getelementptr inbounds %class.table2map, ptr %this1, i32 0, i32 0
  call void @_ZN14core_hashtableI17default_map_entryI6symbolN12param_descrs3imp4infoEEN9table2mapIS5_16symbol_hash_proc14symbol_eq_procE15entry_hash_procENS9_13entry_eq_procEED2Ev(ptr noundef nonnull align 8 dereferenceable(20) %m_table) #3
  ret void
}

; Function Attrs: mustprogress nounwind uwtable
define linkonce_odr hidden void @_ZN6vectorI6symbolLb0EjEC2Ev(ptr noundef nonnull align 8 dereferenceable(8) %this) unnamed_addr #4 comdat align 2 {
entry:
  %this.addr = alloca ptr, align 8
  store ptr %this, ptr %this.addr, align 8
  %this1 = load ptr, ptr %this.addr, align 8
  %m_data = getelementptr inbounds %class.vector, ptr %this1, i32 0, i32 0
  store ptr null, ptr %m_data, align 8
  ret void
}

; Function Attrs: mustprogress uwtable
define linkonce_odr hidden void @_ZN9table2mapI17default_map_entryI6symbolN12param_descrs3imp4infoEE16symbol_hash_proc14symbol_eq_procEC2ERKS6_RKS7_(ptr noundef nonnull align 8 dereferenceable(24) %this, ptr noundef nonnull align 1 dereferenceable(1) %h, ptr noundef nonnull align 1 dereferenceable(1) %e) unnamed_addr #5 comdat align 2 {
entry:
  %this.addr = alloca ptr, align 8
  %h.addr = alloca ptr, align 8
  %e.addr = alloca ptr, align 8
  %ref.tmp = alloca %"struct.table2map<default_map_entry<symbol, param_descrs::imp::info>, symbol_hash_proc, symbol_eq_proc>::entry_hash_proc", align 1
  %ref.tmp2 = alloca %"struct.table2map<default_map_entry<symbol, param_descrs::imp::info>, symbol_hash_proc, symbol_eq_proc>::entry_eq_proc", align 1
  store ptr %this, ptr %this.addr, align 8
  store ptr %h, ptr %h.addr, align 8
  store ptr %e, ptr %e.addr, align 8
  %this1 = load ptr, ptr %this.addr, align 8
  %m_table = getelementptr inbounds %class.table2map, ptr %this1, i32 0, i32 0
  %0 = load ptr, ptr %h.addr, align 8
  call void @_ZN9table2mapI17default_map_entryI6symbolN12param_descrs3imp4infoEE16symbol_hash_proc14symbol_eq_procE15entry_hash_procC2ERKS6_(ptr noundef nonnull align 1 dereferenceable(1) %ref.tmp, ptr noundef nonnull align 1 dereferenceable(1) %0)
  %1 = load ptr, ptr %e.addr, align 8
  call void @_ZN9table2mapI17default_map_entryI6symbolN12param_descrs3imp4infoEE16symbol_hash_proc14symbol_eq_procE13entry_eq_procC2ERKS7_(ptr noundef nonnull align 1 dereferenceable(1) %ref.tmp2, ptr noundef nonnull align 1 dereferenceable(1) %1)
  call void @_ZN14core_hashtableI17default_map_entryI6symbolN12param_descrs3imp4infoEEN9table2mapIS5_16symbol_hash_proc14symbol_eq_procE15entry_hash_procENS9_13entry_eq_procEEC2EjRKSA_RKSB_(ptr noundef nonnull align 8 dereferenceable(20) %m_table, i32 noundef 8, ptr noundef nonnull align 1 dereferenceable(1) %ref.tmp, ptr noundef nonnull align 1 dereferenceable(1) %ref.tmp2)
  ret void
}

; Function Attrs: mustprogress nounwind uwtable
define linkonce_odr hidden void @_ZN3mapI6symbolN12param_descrs3imp4infoE16symbol_hash_proc14symbol_eq_procED2Ev(ptr noundef nonnull align 8 dereferenceable(24) %this) unnamed_addr #4 comdat align 2 {
entry:
  %this.addr = alloca ptr, align 8
  store ptr %this, ptr %this.addr, align 8
  %this1 = load ptr, ptr %this.addr, align 8
  call void @_ZN9table2mapI17default_map_entryI6symbolN12param_descrs3imp4infoEE16symbol_hash_proc14symbol_eq_procED2Ev(ptr noundef nonnull align 8 dereferenceable(24) %this1) #3
  ret void
}

; Function Attrs: mustprogress nounwind uwtable
define linkonce_odr hidden void @_ZN7svectorI6symboljEC2Ev(ptr noundef nonnull align 8 dereferenceable(8) %this) unnamed_addr #4 comdat align 2 {
entry:
  %this.addr = alloca ptr, align 8
  store ptr %this, ptr %this.addr, align 8
  %this1 = load ptr, ptr %this.addr, align 8
  %0 = getelementptr inbounds i8, ptr %this1, i64 0
  call void @llvm.memset.p0.i64(ptr align 8 %0, i8 0, i64 8, i1 false)
  call void @_ZN6vectorI6symbolLb0EjEC2Ev(ptr noundef nonnull align 8 dereferenceable(8) %this1) #3
  ret void
}

; Function Attrs: mustprogress uwtable
define linkonce_odr hidden void @_ZN3mapI6symbolN12param_descrs3imp4infoE16symbol_hash_proc14symbol_eq_procEC2ERKS4_RKS5_(ptr noundef nonnull align 8 dereferenceable(24) %this, ptr noundef nonnull align 1 dereferenceable(1) %h, ptr noundef nonnull align 1 dereferenceable(1) %e) unnamed_addr #5 comdat align 2 {
entry:
  %this.addr = alloca ptr, align 8
  %h.addr = alloca ptr, align 8
  %e.addr = alloca ptr, align 8
  store ptr %this, ptr %this.addr, align 8
  store ptr %h, ptr %h.addr, align 8
  store ptr %e, ptr %e.addr, align 8
  %this1 = load ptr, ptr %this.addr, align 8
  %0 = load ptr, ptr %h.addr, align 8
  %1 = load ptr, ptr %e.addr, align 8
  call void @_ZN9table2mapI17default_map_entryI6symbolN12param_descrs3imp4infoEE16symbol_hash_proc14symbol_eq_procEC2ERKS6_RKS7_(ptr noundef nonnull align 8 dereferenceable(24) %this1, ptr noundef nonnull align 1 dereferenceable(1) %0, ptr noundef nonnull align 1 dereferenceable(1) %1)
  ret void
}

; Function Attrs: mustprogress uwtable
define linkonce_odr hidden void @_ZN12param_descrs3impC2Ev(ptr noundef nonnull align 8 dereferenceable(32) %this) unnamed_addr #5 comdat align 2 personality ptr @__gxx_personality_v0 {
entry:
  %this.addr = alloca ptr, align 8
  %ref.tmp = alloca %struct.symbol_hash_proc, align 1
  %ref.tmp2 = alloca %struct.symbol_eq_proc, align 1
  %exn.slot = alloca ptr, align 8
  %ehselector.slot = alloca i32, align 4
  store ptr %this, ptr %this.addr, align 8
  %this1 = load ptr, ptr %this.addr, align 8
  %m_info = getelementptr inbounds %"struct.param_descrs::imp", ptr %this1, i32 0, i32 0
  call void @_ZN3mapI6symbolN12param_descrs3imp4infoE16symbol_hash_proc14symbol_eq_procEC2ERKS4_RKS5_(ptr noundef nonnull align 8 dereferenceable(24) %m_info, ptr noundef nonnull align 1 dereferenceable(1) %ref.tmp, ptr noundef nonnull align 1 dereferenceable(1) %ref.tmp2)
  %m_names = getelementptr inbounds %"struct.param_descrs::imp", ptr %this1, i32 0, i32 1
  invoke void @_ZN7svectorI6symboljEC2Ev(ptr noundef nonnull align 8 dereferenceable(8) %m_names)
          to label %invoke.cont unwind label %lpad

invoke.cont:                                      ; preds = %entry
  ret void

lpad:                                             ; preds = %entry
  %0 = landingpad { ptr, i32 }
          cleanup
  %1 = extractvalue { ptr, i32 } %0, 0
  store ptr %1, ptr %exn.slot, align 8
  %2 = extractvalue { ptr, i32 } %0, 1
  store i32 %2, ptr %ehselector.slot, align 4
  call void @_ZN3mapI6symbolN12param_descrs3imp4infoE16symbol_hash_proc14symbol_eq_procED2Ev(ptr noundef nonnull align 8 dereferenceable(24) %m_info) #3
  br label %eh.resume

eh.resume:                                        ; preds = %lpad
  %exn = load ptr, ptr %exn.slot, align 8
  %sel = load i32, ptr %ehselector.slot, align 4
  %lpad.val = insertvalue { ptr, i32 } poison, ptr %exn, 0
  %lpad.val3 = insertvalue { ptr, i32 } %lpad.val, i32 %sel, 1
  resume { ptr, i32 } %lpad.val3
}

; Function Attrs: mustprogress uwtable
define hidden void @_ZN12param_descrsC2Ev(ptr noundef nonnull align 8 dereferenceable(8) %this) unnamed_addr #5 align 2 {
entry:
  %this.addr = alloca ptr, align 8
  store ptr %this, ptr %this.addr, align 8
  %this1 = load ptr, ptr %this.addr, align 8
  %call = call noalias noundef ptr @_ZN6memory8allocateEm(i64 noundef 32)
  call void @llvm.memset.p0.i64(ptr align 8 %call, i8 0, i64 32, i1 false)
  call void @_ZN12param_descrs3impC2Ev(ptr noundef nonnull align 8 dereferenceable(32) %call)
  %m_imp = getelementptr inbounds %class.param_descrs, ptr %this1, i32 0, i32 0
  store ptr %call, ptr %m_imp, align 8
  ret void
}