; Function Attrs: mustprogress uwtable
define hidden void @_ZN12param_descrsC2Ev(ptr nocapture noundef nonnull writeonly align 8 dereferenceable(8) %this) unnamed_addr #3 align 2 personality ptr @__gxx_personality_v0 {
entry:
  %call = tail call noalias noundef ptr @_ZN6memory8allocateEm(i64 noundef 32)
  tail call void @llvm.memset.p0.i64(ptr noundef nonnull align 8 dereferenceable(32) %call, i8 0, i64 32, i1 false)
  %call.i.i.i.i.i.i = tail call noalias noundef ptr @_ZN6memory8allocateEm(i64 noundef 384)
  br label %for.body.i.i.i.i.i.i

for.body.i.i.i.i.i.i:                             ; preds = %for.body.i.i.i.i.i.i, %entry
  %i.07.i.i.i.i.i.i = phi i32 [ %inc.i.i.i.i.i.i, %for.body.i.i.i.i.i.i ], [ 0, %entry ]
  %curr.06.i.i.i.i.i.i = phi ptr [ %incdec.ptr.i.i.i.i.i.i, %for.body.i.i.i.i.i.i ], [ %call.i.i.i.i.i.i, %entry ]
  %m_value.i.i.i.i.i.i.i.i.i = getelementptr inbounds i8, ptr %curr.06.i.i.i.i.i.i, i64 16
  tail call void @llvm.memset.p0.i64(ptr noundef nonnull align 8 dereferenceable(24) %curr.06.i.i.i.i.i.i, i8 0, i64 24, i1 false)
  store i32 19, ptr %m_value.i.i.i.i.i.i.i.i.i, align 8
  %m_descr.i.i.i.i.i.i.i.i.i.i = getelementptr inbounds i8, ptr %curr.06.i.i.i.i.i.i, i64 24
  tail call void @llvm.memset.p0.i64(ptr noundef nonnull align 8 dereferenceable(24) %m_descr.i.i.i.i.i.i.i.i.i.i, i8 0, i64 24, i1 false)
  %inc.i.i.i.i.i.i = add nuw nsw i32 %i.07.i.i.i.i.i.i, 1
  %incdec.ptr.i.i.i.i.i.i = getelementptr inbounds i8, ptr %curr.06.i.i.i.i.i.i, i64 48
  %exitcond.not.i.i.i.i.i.i = icmp eq i32 %inc.i.i.i.i.i.i, 8
  br i1 %exitcond.not.i.i.i.i.i.i, label %_ZN12param_descrs3impC2Ev.exit, label %for.body.i.i.i.i.i.i, !llvm.loop !6

_ZN12param_descrs3impC2Ev.exit:                   ; preds = %for.body.i.i.i.i.i.i
  store ptr %call.i.i.i.i.i.i, ptr %call, align 8
  %m_capacity.i.i.i.i = getelementptr inbounds i8, ptr %call, i64 8
  store i32 8, ptr %m_capacity.i.i.i.i, align 8
  %m_size.i.i.i.i = getelementptr inbounds i8, ptr %call, i64 12
  store i32 0, ptr %m_size.i.i.i.i, align 4
  %m_num_deleted.i.i.i.i = getelementptr inbounds i8, ptr %call, i64 16
  store i32 0, ptr %m_num_deleted.i.i.i.i, align 8
  %m_names.i = getelementptr inbounds i8, ptr %call, i64 24
  store ptr null, ptr %m_names.i, align 8
  store ptr %call, ptr %this, align 8
  ret void
}